target datalayout = "e-m:e-p270:32:32-p271:32:32-p272:64:64-i64:64-i128:128-f80:128-n8:16:32:64-S128"
target triple = "x86_64-pc-linux-gnu"

%"class.grpc_core::Duration" = type { i64 }
%"struct.(anonymous namespace)::backup_poller" = type { %struct.grpc_timer, %struct.grpc_closure, %struct.grpc_closure, ptr, ptr, i8, %struct.gpr_refcount, %struct.gpr_refcount }
%struct.grpc_timer = type { i64, i32, i8, ptr, ptr, ptr, %union.anon.4 }
%union.anon.4 = type { %"struct.grpc_event_engine::experimental::EventEngine::TaskHandle" }
%"struct.grpc_event_engine::experimental::EventEngine::TaskHandle" = type { [2 x i64] }
%struct.grpc_closure = type { %union.anon.5, ptr, ptr, %union.anon.6 }
%union.anon.5 = type { ptr }
%union.anon.6 = type { i64 }
%struct.gpr_refcount = type { i64 }
%"class.grpc_core::Timestamp" = type { i64 }

@_ZL25g_backup_polling_disabled = internal global i8 0, align 1
@_ZL11g_poller_mu = internal global i64 0, align 8
@_ZL15g_poll_interval = internal global %"class.grpc_core::Duration" { i64 5000 }, align 8
@_ZL8g_poller = internal global ptr null, align 8
@_ZN9grpc_core9Timestamp25thread_local_time_source_E = external thread_local global ptr, align 8

; Function Attrs: mustprogress nounwind uwtable
define linkonce_odr void @_ZN9grpc_core9TimestampC2El(ptr noundef nonnull align 8 dereferenceable(8) %0, i64 noundef %1) unnamed_addr #7 comdat align 2 {
  %3 = alloca ptr, align 8
  %4 = alloca i64, align 8
  store ptr %0, ptr %3, align 8, !tbaa !81
  store i64 %1, ptr %4, align 8, !tbaa !12
  %5 = load ptr, ptr %3, align 8
  %6 = getelementptr inbounds nuw %"class.grpc_core::Timestamp", ptr %5, i32 0, i32 0
  %7 = load i64, ptr %4, align 8, !tbaa !12
  store i64 %7, ptr %6, align 8, !tbaa !83
  ret void
}

; Function Attrs: inlinehint mustprogress nounwind uwtable
define linkonce_odr noundef i64 @_ZN9grpc_core13SaturatingAddIlEET_S1_S1_(i64 noundef %0, i64 noundef %1) #14 comdat {
  %3 = alloca i64, align 8
  %4 = alloca i64, align 8
  %5 = alloca i64, align 8
  store i64 %0, ptr %4, align 8, !tbaa !12
  store i64 %1, ptr %5, align 8, !tbaa !12
  %6 = load i64, ptr %4, align 8, !tbaa !12
  %7 = icmp sgt i64 %6, 0
  br i1 %7, label %8, label %17

8:                                                ; preds = %2
  %9 = load i64, ptr %5, align 8, !tbaa !12
  %10 = call noundef i64 @_ZNSt14numeric_limitsIlE3maxEv() #3
  %11 = load i64, ptr %4, align 8, !tbaa !12
  %12 = sub nsw i64 %10, %11
  %13 = icmp sgt i64 %9, %12
  br i1 %13, label %14, label %16

14:                                               ; preds = %8
  %15 = call noundef i64 @_ZNSt14numeric_limitsIlE3maxEv() #3
  store i64 %15, ptr %3, align 8
  br label %30

16:                                               ; preds = %8
  br label %26

17:                                               ; preds = %2
  %18 = load i64, ptr %5, align 8, !tbaa !12
  %19 = call noundef i64 @_ZNSt14numeric_limitsIlE3minEv() #3
  %20 = load i64, ptr %4, align 8, !tbaa !12
  %21 = sub nsw i64 %19, %20
  %22 = icmp slt i64 %18, %21
  br i1 %22, label %23, label %25

23:                                               ; preds = %17
  %24 = call noundef i64 @_ZNSt14numeric_limitsIlE3minEv() #3
  store i64 %24, ptr %3, align 8
  br label %30

25:                                               ; preds = %17
  br label %26

26:                                               ; preds = %25, %16
  %27 = load i64, ptr %4, align 8, !tbaa !12
  %28 = load i64, ptr %5, align 8, !tbaa !12
  %29 = add nsw i64 %27, %28
  store i64 %29, ptr %3, align 8
  br label %30

30:                                               ; preds = %26, %23, %14
  %31 = load i64, ptr %3, align 8
  ret i64 %31
}

; Function Attrs: mustprogress nounwind uwtable
define linkonce_odr noundef i64 @_ZNSt14numeric_limitsIlE3minEv() #7 comdat align 2 {
  ret i64 -9223372036854775808
}

; Function Attrs: mustprogress nounwind uwtable
define linkonce_odr noundef i64 @_ZNSt14numeric_limitsIlE3maxEv() #7 comdat align 2 {
  ret i64 9223372036854775807
}

; Function Attrs: mustprogress uwtable
define linkonce_odr i64 @_ZN9grpc_core9Timestamp33FromMillisecondsAfterProcessEpochEl(i64 noundef %0) #4 comdat align 2 {
  %2 = alloca %"class.grpc_core::Timestamp", align 8
  %3 = alloca i64, align 8
  store i64 %0, ptr %3, align 8, !tbaa !12
  %4 = load i64, ptr %3, align 8, !tbaa !12
  call void @_ZN9grpc_core9TimestampC2El(ptr noundef nonnull align 8 dereferenceable(8) %2, i64 noundef %4)
  %5 = getelementptr inbounds nuw %"class.grpc_core::Timestamp", ptr %2, i32 0, i32 0
  %6 = load i64, ptr %5, align 8
  ret i64 %6
}

; Function Attrs: inlinehint mustprogress uwtable
define linkonce_odr noundef i64 @_ZN9grpc_core11time_detail9MillisAddEll(i64 noundef %0, i64 noundef %1) #5 comdat {
  %3 = alloca i64, align 8
  %4 = alloca i64, align 8
  %5 = alloca i64, align 8
  store i64 %0, ptr %4, align 8, !tbaa !12
  store i64 %1, ptr %5, align 8, !tbaa !12
  %6 = load i64, ptr %4, align 8, !tbaa !12
  %7 = call noundef i64 @_ZNSt14numeric_limitsIlE3maxEv() #3
  %8 = icmp eq i64 %6, %7
  br i1 %8, label %13, label %9

9:                                                ; preds = %2
  %10 = load i64, ptr %5, align 8, !tbaa !12
  %11 = call noundef i64 @_ZNSt14numeric_limitsIlE3maxEv() #3
  %12 = icmp eq i64 %10, %11
  br i1 %12, label %13, label %15

13:                                               ; preds = %9, %2
  %14 = call noundef i64 @_ZNSt14numeric_limitsIlE3maxEv() #3
  store i64 %14, ptr %3, align 8
  br label %29

15:                                               ; preds = %9
  %16 = load i64, ptr %4, align 8, !tbaa !12
  %17 = call noundef i64 @_ZNSt14numeric_limitsIlE3minEv() #3
  %18 = icmp eq i64 %16, %17
  br i1 %18, label %23, label %19

19:                                               ; preds = %15
  %20 = load i64, ptr %5, align 8, !tbaa !12
  %21 = call noundef i64 @_ZNSt14numeric_limitsIlE3minEv() #3
  %22 = icmp eq i64 %20, %21
  br i1 %22, label %23, label %25

23:                                               ; preds = %19, %15
  %24 = call noundef i64 @_ZNSt14numeric_limitsIlE3minEv() #3
  store i64 %24, ptr %3, align 8
  br label %29

25:                                               ; preds = %19
  %26 = load i64, ptr %4, align 8, !tbaa !12
  %27 = load i64, ptr %5, align 8, !tbaa !12
  %28 = call noundef i64 @_ZN9grpc_core13SaturatingAddIlEET_S1_S1_(i64 noundef %26, i64 noundef %27)
  store i64 %28, ptr %3, align 8
  br label %29

29:                                               ; preds = %25, %23, %13
  %30 = load i64, ptr %3, align 8
  ret i64 %30
}

; Function Attrs: mustprogress nounwind uwtable
define linkonce_odr noundef i64 @_ZNK9grpc_core8Duration6millisEv(ptr noundef nonnull align 8 dereferenceable(8) %0) #7 comdat align 2 {
  %2 = alloca ptr, align 8
  store ptr %0, ptr %2, align 8, !tbaa !32
  %3 = load ptr, ptr %2, align 8
  %4 = getelementptr inbounds nuw %"class.grpc_core::Duration", ptr %3, i32 0, i32 0
  %5 = load i64, ptr %4, align 8, !tbaa !34
  ret i64 %5
}

; Function Attrs: mustprogress nounwind uwtable
define linkonce_odr noundef i64 @_ZNK9grpc_core9Timestamp32milliseconds_after_process_epochEv(ptr noundef nonnull align 8 dereferenceable(8) %0) #7 comdat align 2 {
  %2 = alloca ptr, align 8
  store ptr %0, ptr %2, align 8, !tbaa !81
  %3 = load ptr, ptr %2, align 8
  %4 = getelementptr inbounds nuw %"class.grpc_core::Timestamp", ptr %3, i32 0, i32 0
  %5 = load i64, ptr %4, align 8, !tbaa !83
  ret i64 %5
}

; Function Attrs: uwtable
define linkonce_odr hidden noundef ptr @_ZTWN9grpc_core9Timestamp25thread_local_time_source_E() #15 comdat {
  %1 = icmp ne ptr @_ZTHN9grpc_core9Timestamp25thread_local_time_source_E, null
  br i1 %1, label %2, label %3

2:                                                ; preds = %0
  call void @_ZTHN9grpc_core9Timestamp25thread_local_time_source_E()
  br label %3

3:                                                ; preds = %2, %0
  %4 = call align 8 ptr @llvm.threadlocal.address.p0(ptr align 8 @_ZN9grpc_core9Timestamp25thread_local_time_source_E)
  ret ptr %4
}

; Function Attrs: inlinehint mustprogress uwtable
define linkonce_odr i64 @_ZN9grpc_coreplENS_9TimestampENS_8DurationE(i64 %0, i64 %1) #5 comdat {
  %3 = alloca %"class.grpc_core::Timestamp", align 8
  %4 = alloca %"class.grpc_core::Timestamp", align 8
  %5 = alloca %"class.grpc_core::Duration", align 8
  %6 = getelementptr inbounds nuw %"class.grpc_core::Timestamp", ptr %4, i32 0, i32 0
  store i64 %0, ptr %6, align 8
  %7 = getelementptr inbounds nuw %"class.grpc_core::Duration", ptr %5, i32 0, i32 0
  store i64 %1, ptr %7, align 8
  %8 = call noundef i64 @_ZNK9grpc_core9Timestamp32milliseconds_after_process_epochEv(ptr noundef nonnull align 8 dereferenceable(8) %4)
  %9 = call noundef i64 @_ZNK9grpc_core8Duration6millisEv(ptr noundef nonnull align 8 dereferenceable(8) %5)
  %10 = call noundef i64 @_ZN9grpc_core11time_detail9MillisAddEll(i64 noundef %8, i64 noundef %9)
  %11 = call i64 @_ZN9grpc_core9Timestamp33FromMillisecondsAfterProcessEpochEl(i64 noundef %10)
  %12 = getelementptr inbounds nuw %"class.grpc_core::Timestamp", ptr %3, i32 0, i32 0
  store i64 %11, ptr %12, align 8
  %13 = getelementptr inbounds nuw %"class.grpc_core::Timestamp", ptr %3, i32 0, i32 0
  %14 = load i64, ptr %13, align 8
  ret i64 %14
}

; Function Attrs: mustprogress uwtable
define linkonce_odr i64 @_ZN9grpc_core9Timestamp3NowEv() #4 comdat align 2 {
  %1 = alloca %"class.grpc_core::Timestamp", align 8
  %2 = call ptr @_ZTWN9grpc_core9Timestamp25thread_local_time_source_E()
  %3 = load ptr, ptr %2, align 8, !tbaa !69
  %4 = load ptr, ptr %3, align 8, !tbaa !71
  %5 = getelementptr inbounds ptr, ptr %4, i64 0
  %6 = load ptr, ptr %5, align 8
  %7 = call i64 %6(ptr noundef nonnull align 8 dereferenceable(8) %3)
  %8 = getelementptr inbounds nuw %"class.grpc_core::Timestamp", ptr %1, i32 0, i32 0
  store i64 %7, ptr %8, align 8
  %9 = getelementptr inbounds nuw %"class.grpc_core::Timestamp", ptr %1, i32 0, i32 0
  %10 = load i64, ptr %9, align 8
  ret i64 %10
}

; Function Attrs: inlinehint mustprogress nounwind uwtable
define linkonce_odr noundef ptr @_Z17grpc_closure_initP12grpc_closurePFvPvN4absl12lts_202407226StatusEES1_(ptr noundef %0, ptr noundef %1, ptr noundef %2) #14 comdat {
  %4 = alloca ptr, align 8
  %5 = alloca ptr, align 8
  %6 = alloca ptr, align 8
  store ptr %0, ptr %4, align 8, !tbaa !62
  store ptr %1, ptr %5, align 8, !tbaa !63
  store ptr %2, ptr %6, align 8, !tbaa !63
  %7 = load ptr, ptr %5, align 8, !tbaa !63
  %8 = load ptr, ptr %4, align 8, !tbaa !62
  %9 = getelementptr inbounds nuw %struct.grpc_closure, ptr %8, i32 0, i32 1
  store ptr %7, ptr %9, align 8, !tbaa !64
  %10 = load ptr, ptr %6, align 8, !tbaa !63
  %11 = load ptr, ptr %4, align 8, !tbaa !62
  %12 = getelementptr inbounds nuw %struct.grpc_closure, ptr %11, i32 0, i32 2
  store ptr %10, ptr %12, align 8, !tbaa !65
  %13 = load ptr, ptr %4, align 8, !tbaa !62
  %14 = getelementptr inbounds nuw %struct.grpc_closure, ptr %13, i32 0, i32 3
  store i64 0, ptr %14, align 8, !tbaa !66
  %15 = load ptr, ptr %4, align 8, !tbaa !62
  ret ptr %15
}

; Function Attrs: mustprogress uwtable
define internal noundef ptr @_ZN9grpc_core6ZallocIN12_GLOBAL__N_113backup_pollerEEEPT_v() #4 {
  %1 = call ptr @gpr_zalloc(i64 noundef 160)
  ret ptr %1
}

; Function Attrs: mustprogress nounwind uwtable
define linkonce_odr void @_ZN9grpc_core8DurationC2El(ptr noundef nonnull align 8 dereferenceable(8) %0, i64 noundef %1) unnamed_addr #7 comdat align 2 {
  %3 = alloca ptr, align 8
  %4 = alloca i64, align 8
  store ptr %0, ptr %3, align 8, !tbaa !32
  store i64 %1, ptr %4, align 8, !tbaa !12
  %5 = load ptr, ptr %3, align 8
  %6 = getelementptr inbounds nuw %"class.grpc_core::Duration", ptr %5, i32 0, i32 0
  %7 = load i64, ptr %4, align 8, !tbaa !12
  store i64 %7, ptr %6, align 8, !tbaa !34
  ret void
}

; Function Attrs: mustprogress uwtable
define internal void @_ZL20g_poller_init_lockedv() #4 {
  %1 = alloca %"class.grpc_core::Timestamp", align 8
  %2 = alloca %"class.grpc_core::Timestamp", align 8
  %3 = alloca %"class.grpc_core::Duration", align 8
  %4 = load ptr, ptr @_ZL8g_poller, align 8, !tbaa !38
  %5 = icmp eq ptr %4, null
  br i1 %5, label %6, label %41

6:                                                ; preds = %0
  %7 = call noundef ptr @_ZN9grpc_core6ZallocIN12_GLOBAL__N_113backup_pollerEEEPT_v()
  store ptr %7, ptr @_ZL8g_poller, align 8, !tbaa !38
  %8 = call noundef i64 @_Z17grpc_pollset_sizev()
  %9 = call ptr @gpr_zalloc(i64 noundef %8)
  %10 = load ptr, ptr @_ZL8g_poller, align 8, !tbaa !38
  %11 = getelementptr inbounds nuw %"struct.(anonymous namespace)::backup_poller", ptr %10, i32 0, i32 4
  store ptr %9, ptr %11, align 8, !tbaa !40
  %12 = load ptr, ptr @_ZL8g_poller, align 8, !tbaa !38
  %13 = getelementptr inbounds nuw %"struct.(anonymous namespace)::backup_poller", ptr %12, i32 0, i32 5
  store i8 0, ptr %13, align 8, !tbaa !50
  %14 = load ptr, ptr @_ZL8g_poller, align 8, !tbaa !38
  %15 = getelementptr inbounds nuw %"struct.(anonymous namespace)::backup_poller", ptr %14, i32 0, i32 4
  %16 = load ptr, ptr %15, align 8, !tbaa !40
  %17 = load ptr, ptr @_ZL8g_poller, align 8, !tbaa !38
  %18 = getelementptr inbounds nuw %"struct.(anonymous namespace)::backup_poller", ptr %17, i32 0, i32 3
  call void @_Z17grpc_pollset_initP12grpc_pollsetPPl(ptr noundef %16, ptr noundef %18)
  %19 = load ptr, ptr @_ZL8g_poller, align 8, !tbaa !38
  %20 = getelementptr inbounds nuw %"struct.(anonymous namespace)::backup_poller", ptr %19, i32 0, i32 6
  call void @gpr_ref_init(ptr noundef %20, i32 noundef 0)
  %21 = load ptr, ptr @_ZL8g_poller, align 8, !tbaa !38
  %22 = getelementptr inbounds nuw %"struct.(anonymous namespace)::backup_poller", ptr %21, i32 0, i32 7
  call void @gpr_ref_init(ptr noundef %22, i32 noundef 3)
  %23 = load ptr, ptr @_ZL8g_poller, align 8, !tbaa !38
  %24 = getelementptr inbounds nuw %"struct.(anonymous namespace)::backup_poller", ptr %23, i32 0, i32 1
  %25 = load ptr, ptr @_ZL8g_poller, align 8, !tbaa !38
  %26 = call noundef ptr @_Z17grpc_closure_initP12grpc_closurePFvPvN4absl12lts_202407226StatusEES1_(ptr noundef %24, ptr noundef @_ZL10run_pollerPvN4absl12lts_202407226StatusE, ptr noundef %25)
  %27 = load ptr, ptr @_ZL8g_poller, align 8, !tbaa !38
  %28 = getelementptr inbounds nuw %"struct.(anonymous namespace)::backup_poller", ptr %27, i32 0, i32 0
  %29 = call i64 @_ZN9grpc_core9Timestamp3NowEv()
  %30 = getelementptr inbounds nuw %"class.grpc_core::Timestamp", ptr %2, i32 0, i32 0
  store i64 %29, ptr %30, align 8
  call void @llvm.memcpy.p0.p0.i64(ptr align 8 %3, ptr align 8 @_ZL15g_poll_interval, i64 8, i1 false), !tbaa.struct !11
  %31 = getelementptr inbounds nuw %"class.grpc_core::Timestamp", ptr %2, i32 0, i32 0
  %32 = load i64, ptr %31, align 8
  %33 = getelementptr inbounds nuw %"class.grpc_core::Duration", ptr %3, i32 0, i32 0
  %34 = load i64, ptr %33, align 8
  %35 = call i64 @_ZN9grpc_coreplENS_9TimestampENS_8DurationE(i64 %32, i64 %34)
  %36 = getelementptr inbounds nuw %"class.grpc_core::Timestamp", ptr %1, i32 0, i32 0
  store i64 %35, ptr %36, align 8
  %37 = load ptr, ptr @_ZL8g_poller, align 8, !tbaa !38
  %38 = getelementptr inbounds nuw %"struct.(anonymous namespace)::backup_poller", ptr %37, i32 0, i32 1
  %39 = getelementptr inbounds nuw %"class.grpc_core::Timestamp", ptr %1, i32 0, i32 0
  %40 = load i64, ptr %39, align 8
  call void @_Z15grpc_timer_initP10grpc_timerN9grpc_core9TimestampEP12grpc_closure(ptr noundef %28, i64 %40, ptr noundef %38)
  br label %41

41:                                               ; preds = %6, %0
  ret void
}

; Function Attrs: mustprogress nounwind uwtable
define linkonce_odr noundef zeroext i1 @_ZNK9grpc_core8DurationeqES0_(ptr noundef nonnull align 8 dereferenceable(8) %0, i64 %1) #7 comdat align 2 {
  %3 = alloca %"class.grpc_core::Duration", align 8
  %4 = alloca ptr, align 8
  %5 = getelementptr inbounds nuw %"class.grpc_core::Duration", ptr %3, i32 0, i32 0
  store i64 %1, ptr %5, align 8
  store ptr %0, ptr %4, align 8, !tbaa !32
  %6 = load ptr, ptr %4, align 8
  %7 = getelementptr inbounds nuw %"class.grpc_core::Duration", ptr %6, i32 0, i32 0
  %8 = load i64, ptr %7, align 8, !tbaa !34
  %9 = getelementptr inbounds nuw %"class.grpc_core::Duration", ptr %3, i32 0, i32 0
  %10 = load i64, ptr %9, align 8, !tbaa !34
  %11 = icmp eq i64 %8, %10
  ret i1 %11
}

; Function Attrs: mustprogress uwtable
define linkonce_odr i64 @_ZN9grpc_core8Duration4ZeroEv() #4 comdat align 2 {
  %1 = alloca %"class.grpc_core::Duration", align 8
  call void @_ZN9grpc_core8DurationC2El(ptr noundef nonnull align 8 dereferenceable(8) %1, i64 noundef 0)
  %2 = getelementptr inbounds nuw %"class.grpc_core::Duration", ptr %1, i32 0, i32 0
  %3 = load i64, ptr %2, align 8
  ret i64 %3
}

; Function Attrs: mustprogress uwtable
define void @_Z40grpc_client_channel_start_backup_pollingP16grpc_pollset_set(ptr noundef %0) #4 {
  %2 = alloca ptr, align 8
  %3 = alloca %"class.grpc_core::Duration", align 8
  %4 = alloca ptr, align 8
  store ptr %0, ptr %2, align 8, !tbaa !36
  %5 = load i8, ptr @_ZL25g_backup_polling_disabled, align 1, !tbaa !3, !range !7, !noundef !8
  %6 = trunc i8 %5 to i1
  br i1 %6, label %15, label %7

7:                                                ; preds = %1
  %8 = call i64 @_ZN9grpc_core8Duration4ZeroEv()
  %9 = getelementptr inbounds nuw %"class.grpc_core::Duration", ptr %3, i32 0, i32 0
  store i64 %8, ptr %9, align 8
  %10 = getelementptr inbounds nuw %"class.grpc_core::Duration", ptr %3, i32 0, i32 0
  %11 = load i64, ptr %10, align 8
  %12 = call noundef zeroext i1 @_ZNK9grpc_core8DurationeqES0_(ptr noundef nonnull align 8 dereferenceable(8) @_ZL15g_poll_interval, i64 %11)
  br i1 %12, label %15, label %13

13:                                               ; preds = %7
  %14 = call noundef zeroext i1 @_Z28grpc_iomgr_run_in_backgroundv()
  br i1 %14, label %15, label %16

15:                                               ; preds = %13, %7, %1
  br label %24

16:                                               ; preds = %13
  call void @gpr_mu_lock(ptr noundef @_ZL11g_poller_mu)
  call void @_ZL20g_poller_init_lockedv()
  %17 = load ptr, ptr @_ZL8g_poller, align 8, !tbaa !38
  %18 = getelementptr inbounds nuw %"struct.(anonymous namespace)::backup_poller", ptr %17, i32 0, i32 6
  call void @gpr_ref(ptr noundef %18)
  call void @llvm.lifetime.start.p0(i64 8, ptr %4) #3
  %19 = load ptr, ptr @_ZL8g_poller, align 8, !tbaa !38
  %20 = getelementptr inbounds nuw %"struct.(anonymous namespace)::backup_poller", ptr %19, i32 0, i32 4
  %21 = load ptr, ptr %20, align 8, !tbaa !40
  store ptr %21, ptr %4, align 8, !tbaa !49
  call void @gpr_mu_unlock(ptr noundef @_ZL11g_poller_mu)
  %22 = load ptr, ptr %2, align 8, !tbaa !36
  %23 = load ptr, ptr %4, align 8, !tbaa !49
  call void @_Z28grpc_pollset_set_add_pollsetP16grpc_pollset_setP12grpc_pollset(ptr noundef %22, ptr noundef %23)
  call void @llvm.lifetime.end.p0(i64 8, ptr %4) #3
  br label %24

24:                                               ; preds = %16, %15
  ret void
}