; Function Attrs: uwtable
define void @_Z40grpc_client_channel_start_backup_pollingP16grpc_pollset_set(ptr noundef %0) local_unnamed_addr #7 {
  %2 = load i8, ptr @_ZL25g_backup_polling_disabled, align 1, !tbaa !3, !range !24, !noundef !25
  %3 = trunc nuw i8 %2 to i1
  %4 = load i64, ptr @_ZL15g_poll_interval.0, align 8
  %5 = icmp eq i64 %4, 0
  %or.cond = select i1 %3, i1 true, i1 %5
  br i1 %or.cond, label %55, label %6

6:                                                ; preds = %1
  %7 = tail call noundef zeroext i1 @_Z28grpc_iomgr_run_in_backgroundv()
  br i1 %7, label %55, label %8

8:                                                ; preds = %6
  tail call void @gpr_mu_lock(ptr noundef nonnull @_ZL11g_poller_mu)
  %9 = load ptr, ptr @_ZL8g_poller, align 8, !tbaa !26
  %10 = icmp eq ptr %9, null
  br i1 %10, label %11, label %_ZL20g_poller_init_lockedv.exit

11:                                               ; preds = %8
  %12 = tail call noundef ptr @gpr_zalloc(i64 noundef 160)
  store ptr %12, ptr @_ZL8g_poller, align 8, !tbaa !26
  %13 = tail call noundef i64 @_Z17grpc_pollset_sizev()
  %14 = tail call ptr @gpr_zalloc(i64 noundef %13)
  %15 = load ptr, ptr @_ZL8g_poller, align 8, !tbaa !26
  %16 = getelementptr inbounds nuw i8, ptr %15, i64 128
  store ptr %14, ptr %16, align 8, !tbaa !28
  %17 = getelementptr inbounds nuw i8, ptr %15, i64 136
  store i8 0, ptr %17, align 8, !tbaa !37
  %18 = getelementptr inbounds nuw i8, ptr %15, i64 120
  tail call void @_Z17grpc_pollset_initP12grpc_pollsetPPl(ptr noundef %14, ptr noundef nonnull %18)
  %19 = load ptr, ptr @_ZL8g_poller, align 8, !tbaa !26
  %20 = getelementptr inbounds nuw i8, ptr %19, i64 144
  tail call void @gpr_ref_init(ptr noundef nonnull %20, i32 noundef 0)
  %21 = load ptr, ptr @_ZL8g_poller, align 8, !tbaa !26
  %22 = getelementptr inbounds nuw i8, ptr %21, i64 152
  tail call void @gpr_ref_init(ptr noundef nonnull %22, i32 noundef 3)
  %23 = load ptr, ptr @_ZL8g_poller, align 8, !tbaa !26
  %24 = getelementptr inbounds nuw i8, ptr %23, i64 64
  store ptr @_ZL10run_pollerPvN4absl12lts_202407226StatusE, ptr %24, align 8, !tbaa !38
  %25 = getelementptr inbounds nuw i8, ptr %23, i64 72
  store ptr %23, ptr %25, align 8, !tbaa !39
  %26 = getelementptr inbounds nuw i8, ptr %23, i64 80
  store i64 0, ptr %26, align 8, !tbaa !40
  %.not.i.i.i = icmp eq ptr @_ZTHN9grpc_core9Timestamp25thread_local_time_source_E, null
  br i1 %.not.i.i.i, label %_ZN9grpc_core9Timestamp3NowEv.exit.i, label %27

27:                                               ; preds = %11
  tail call void @_ZTHN9grpc_core9Timestamp25thread_local_time_source_E()
  br label %_ZN9grpc_core9Timestamp3NowEv.exit.i

_ZN9grpc_core9Timestamp3NowEv.exit.i:             ; preds = %27, %11
  %28 = tail call noundef align 8 ptr @llvm.threadlocal.address.p0(ptr align 8 @_ZN9grpc_core9Timestamp25thread_local_time_source_E)
  %29 = load ptr, ptr %28, align 8, !tbaa !41
  %30 = load ptr, ptr %29, align 8, !tbaa !43
  %31 = load ptr, ptr %30, align 8
  %32 = tail call i64 %31(ptr noundef nonnull align 8 dereferenceable(8) %29)
  %.sroa.0.0.copyload.i = load i64, ptr @_ZL15g_poll_interval.0, align 8, !tbaa !23
  %33 = icmp eq i64 %32, 9223372036854775807
  %34 = icmp eq i64 %.sroa.0.0.copyload.i, 9223372036854775807
  %or.cond.i.i.i = or i1 %33, %34
  br i1 %or.cond.i.i.i, label %_ZN9grpc_coreplENS_9TimestampENS_8DurationE.exit.i, label %35

35:                                               ; preds = %_ZN9grpc_core9Timestamp3NowEv.exit.i
  %36 = icmp eq i64 %32, -9223372036854775808
  %37 = icmp eq i64 %.sroa.0.0.copyload.i, -9223372036854775808
  %or.cond9.i.i.i = or i1 %36, %37
  br i1 %or.cond9.i.i.i, label %_ZN9grpc_coreplENS_9TimestampENS_8DurationE.exit.i, label %38

38:                                               ; preds = %35
  %39 = icmp sgt i64 %32, 0
  br i1 %39, label %40, label %43

40:                                               ; preds = %38
  %41 = sub nuw nsw i64 9223372036854775807, %32
  %42 = icmp sgt i64 %.sroa.0.0.copyload.i, %41
  br i1 %42, label %_ZN9grpc_coreplENS_9TimestampENS_8DurationE.exit.i, label %46

43:                                               ; preds = %38
  %44 = sub nsw i64 -9223372036854775808, %32
  %45 = icmp slt i64 %.sroa.0.0.copyload.i, %44
  br i1 %45, label %_ZN9grpc_coreplENS_9TimestampENS_8DurationE.exit.i, label %46

46:                                               ; preds = %43, %40
  %47 = add nsw i64 %.sroa.0.0.copyload.i, %32
  br label %_ZN9grpc_coreplENS_9TimestampENS_8DurationE.exit.i

_ZN9grpc_coreplENS_9TimestampENS_8DurationE.exit.i: ; preds = %46, %43, %40, %35, %_ZN9grpc_core9Timestamp3NowEv.exit.i
  %.0.i.i.i = phi i64 [ 9223372036854775807, %_ZN9grpc_core9Timestamp3NowEv.exit.i ], [ -9223372036854775808, %35 ], [ %47, %46 ], [ 9223372036854775807, %40 ], [ -9223372036854775808, %43 ]
  %48 = load ptr, ptr @_ZL8g_poller, align 8, !tbaa !26
  %49 = getelementptr inbounds nuw i8, ptr %48, i64 56
  tail call void @_Z15grpc_timer_initP10grpc_timerN9grpc_core9TimestampEP12grpc_closure(ptr noundef nonnull %23, i64 %.0.i.i.i, ptr noundef nonnull %49)
  %.pre = load ptr, ptr @_ZL8g_poller, align 8, !tbaa !26
  br label %_ZL20g_poller_init_lockedv.exit

_ZL20g_poller_init_lockedv.exit:                  ; preds = %8, %_ZN9grpc_coreplENS_9TimestampENS_8DurationE.exit.i
  %50 = phi ptr [ %9, %8 ], [ %.pre, %_ZN9grpc_coreplENS_9TimestampENS_8DurationE.exit.i ]
  %51 = getelementptr inbounds nuw i8, ptr %50, i64 144
  tail call void @gpr_ref(ptr noundef nonnull %51)
  %52 = load ptr, ptr @_ZL8g_poller, align 8, !tbaa !26
  %53 = getelementptr inbounds nuw i8, ptr %52, i64 128
  %54 = load ptr, ptr %53, align 8, !tbaa !28
  tail call void @gpr_mu_unlock(ptr noundef nonnull @_ZL11g_poller_mu)
  tail call void @_Z28grpc_pollset_set_add_pollsetP16grpc_pollset_setP12grpc_pollset(ptr noundef %0, ptr noundef %54)
  br label %55

55:                                               ; preds = %1, %6, %_ZL20g_poller_init_lockedv.exit
  ret void
}